; ModuleID = '36/563.c'
source_filename = "36/563.c"
target datalayout = "e-m:e-p270:32:32-p271:32:32-p272:64:64-i64:64-f80:128-n8:16:32:64-S128"
target triple = "x86_64-pc-linux-gnu"

@.str = private unnamed_addr constant [5 x i8] c"%s%s\00", align 1
@.str.1 = private unnamed_addr constant [4 x i8] c"YES\00", align 1
@.str.2 = private unnamed_addr constant [3 x i8] c"NO\00", align 1

; Function Attrs: noinline nounwind uwtable
define dso_local void @main() #0 {
  %1 = alloca i32, align 4
  %2 = alloca i32, align 4
  %3 = alloca i32, align 4
  %4 = alloca i32, align 4
  %5 = alloca i32, align 4
  %6 = alloca [40 x i8], align 16
  %7 = alloca [40 x i8], align 16
  %8 = alloca i8, align 1
  store i32 0, i32* %5, align 4
  %9 = call i32 (i8*, ...) @__isoc99_scanf(i8* getelementptr inbounds ([5 x i8], [5 x i8]* @.str, i64 0, i64 0), [40 x i8]* %6, [40 x i8]* %7)
  %10 = getelementptr inbounds [40 x i8], [40 x i8]* %6, i64 0, i64 0
  %11 = call i64 @strlen(i8* %10) #3
  %12 = trunc i64 %11 to i32
  store i32 %12, i32* %3, align 4
  %13 = getelementptr inbounds [40 x i8], [40 x i8]* %7, i64 0, i64 0
  %14 = call i64 @strlen(i8* %13) #3
  %15 = trunc i64 %14 to i32
  store i32 %15, i32* %4, align 4
  %16 = load i32, i32* %3, align 4
  %17 = load i32, i32* %4, align 4
  %18 = icmp eq i32 %16, %17
  br i1 %18, label %19, label %123

19:                                               ; preds = %0
  store i32 0, i32* %1, align 4
  br label %20

20:                                               ; preds = %90, %19
  %21 = load i32, i32* %1, align 4
  %22 = load i32, i32* %3, align 4
  %23 = icmp slt i32 %21, %22
  br i1 %23, label %24, label %93

24:                                               ; preds = %20
  store i32 0, i32* %2, align 4
  br label %25

25:                                               ; preds = %86, %24
  %26 = load i32, i32* %2, align 4
  %27 = load i32, i32* %1, align 4
  %28 = icmp sle i32 %26, %27
  br i1 %28, label %29, label %89

29:                                               ; preds = %25
  %30 = load i32, i32* %2, align 4
  %31 = sext i32 %30 to i64
  %32 = getelementptr inbounds [40 x i8], [40 x i8]* %6, i64 0, i64 %31
  %33 = load i8, i8* %32, align 1
  %34 = sext i8 %33 to i32
  %35 = load i32, i32* %1, align 4
  %36 = sext i32 %35 to i64
  %37 = getelementptr inbounds [40 x i8], [40 x i8]* %6, i64 0, i64 %36
  %38 = load i8, i8* %37, align 1
  %39 = sext i8 %38 to i32
  %40 = icmp sgt i32 %34, %39
  br i1 %40, label %41, label %57

41:                                               ; preds = %29
  %42 = load i32, i32* %2, align 4
  %43 = sext i32 %42 to i64
  %44 = getelementptr inbounds [40 x i8], [40 x i8]* %6, i64 0, i64 %43
  %45 = load i8, i8* %44, align 1
  store i8 %45, i8* %8, align 1
  %46 = load i32, i32* %1, align 4
  %47 = sext i32 %46 to i64
  %48 = getelementptr inbounds [40 x i8], [40 x i8]* %6, i64 0, i64 %47
  %49 = load i8, i8* %48, align 1
  %50 = load i32, i32* %2, align 4
  %51 = sext i32 %50 to i64
  %52 = getelementptr inbounds [40 x i8], [40 x i8]* %6, i64 0, i64 %51
  store i8 %49, i8* %52, align 1
  %53 = load i8, i8* %8, align 1
  %54 = load i32, i32* %1, align 4
  %55 = sext i32 %54 to i64
  %56 = getelementptr inbounds [40 x i8], [40 x i8]* %6, i64 0, i64 %55
  store i8 %53, i8* %56, align 1
  br label %57

57:                                               ; preds = %41, %29
  %58 = load i32, i32* %2, align 4
  %59 = sext i32 %58 to i64
  %60 = getelementptr inbounds [40 x i8], [40 x i8]* %7, i64 0, i64 %59
  %61 = load i8, i8* %60, align 1
  %62 = sext i8 %61 to i32
  %63 = load i32, i32* %1, align 4
  %64 = sext i32 %63 to i64
  %65 = getelementptr inbounds [40 x i8], [40 x i8]* %7, i64 0, i64 %64
  %66 = load i8, i8* %65, align 1
  %67 = sext i8 %66 to i32
  %68 = icmp sgt i32 %62, %67
  br i1 %68, label %69, label %85

69:                                               ; preds = %57
  %70 = load i32, i32* %2, align 4
  %71 = sext i32 %70 to i64
  %72 = getelementptr inbounds [40 x i8], [40 x i8]* %7, i64 0, i64 %71
  %73 = load i8, i8* %72, align 1
  store i8 %73, i8* %8, align 1
  %74 = load i32, i32* %1, align 4
  %75 = sext i32 %74 to i64
  %76 = getelementptr inbounds [40 x i8], [40 x i8]* %7, i64 0, i64 %75
  %77 = load i8, i8* %76, align 1
  %78 = load i32, i32* %2, align 4
  %79 = sext i32 %78 to i64
  %80 = getelementptr inbounds [40 x i8], [40 x i8]* %7, i64 0, i64 %79
  store i8 %77, i8* %80, align 1
  %81 = load i8, i8* %8, align 1
  %82 = load i32, i32* %1, align 4
  %83 = sext i32 %82 to i64
  %84 = getelementptr inbounds [40 x i8], [40 x i8]* %7, i64 0, i64 %83
  store i8 %81, i8* %84, align 1
  br label %85

85:                                               ; preds = %69, %57
  br label %86

86:                                               ; preds = %85
  %87 = load i32, i32* %2, align 4
  %88 = add nsw i32 %87, 1
  store i32 %88, i32* %2, align 4
  br label %25

89:                                               ; preds = %25
  br label %90

90:                                               ; preds = %89
  %91 = load i32, i32* %1, align 4
  %92 = add nsw i32 %91, 1
  store i32 %92, i32* %1, align 4
  br label %20

93:                                               ; preds = %20
  store i32 0, i32* %1, align 4
  br label %94

94:                                               ; preds = %112, %93
  %95 = load i32, i32* %1, align 4
  %96 = load i32, i32* %3, align 4
  %97 = icmp slt i32 %95, %96
  br i1 %97, label %98, label %115

98:                                               ; preds = %94
  %99 = load i32, i32* %1, align 4
  %100 = sext i32 %99 to i64
  %101 = getelementptr inbounds [40 x i8], [40 x i8]* %6, i64 0, i64 %100
  %102 = load i8, i8* %101, align 1
  %103 = sext i8 %102 to i32
  %104 = load i32, i32* %1, align 4
  %105 = sext i32 %104 to i64
  %106 = getelementptr inbounds [40 x i8], [40 x i8]* %7, i64 0, i64 %105
  %107 = load i8, i8* %106, align 1
  %108 = sext i8 %107 to i32
  %109 = icmp ne i32 %103, %108
  br i1 %109, label %110, label %111

110:                                              ; preds = %98
  store i32 1, i32* %5, align 4
  br label %115

111:                                              ; preds = %98
  br label %112

112:                                              ; preds = %111
  %113 = load i32, i32* %1, align 4
  %114 = add nsw i32 %113, 1
  store i32 %114, i32* %1, align 4
  br label %94

115:                                              ; preds = %110, %94
  %116 = load i32, i32* %5, align 4
  %117 = icmp eq i32 %116, 0
  br i1 %117, label %118, label %120

118:                                              ; preds = %115
  %119 = call i32 (i8*, ...) @printf(i8* getelementptr inbounds ([4 x i8], [4 x i8]* @.str.1, i64 0, i64 0))
  br label %122

120:                                              ; preds = %115
  %121 = call i32 (i8*, ...) @printf(i8* getelementptr inbounds ([3 x i8], [3 x i8]* @.str.2, i64 0, i64 0))
  br label %122

122:                                              ; preds = %120, %118
  br label %125

123:                                              ; preds = %0
  %124 = call i32 (i8*, ...) @printf(i8* getelementptr inbounds ([3 x i8], [3 x i8]* @.str.2, i64 0, i64 0))
  br label %125

125:                                              ; preds = %123, %122
  ret void
}

declare dso_local i32 @__isoc99_scanf(i8*, ...) #1

; Function Attrs: nounwind readonly
declare dso_local i64 @strlen(i8*) #2

declare dso_local i32 @printf(i8*, ...) #1


!llvm.module.flags = !{!0}
!llvm.ident = !{!1}

!0 = !{i32 1, !"wchar_size", i32 4}
!1 = !{!"clang version 10.0.0-4ubuntu1 "}
